target datalayout = "e-m:e-p270:32:32-p271:32:32-p272:64:64-i64:64-i128:128-f80:128-n8:16:32:64-S128"
target triple = "x86_64-pc-linux-gnu"

%"struct.faiss::ScalarQuantizer::SQuantizer" = type { ptr }
%"struct.faiss::(anonymous namespace)::QuantizerFP16" = type { %"struct.faiss::ScalarQuantizer::SQuantizer", i64 }
%"struct.faiss::ScalarQuantizer::SQDistanceComputer" = type { %"struct.faiss::FlatCodesDistanceComputer", ptr }
%"struct.faiss::FlatCodesDistanceComputer" = type { %"struct.faiss::DistanceComputer", ptr, i64 }
%"struct.faiss::DistanceComputer" = type { ptr }
%"struct.faiss::(anonymous namespace)::DCTemplate.25" = type { %"struct.faiss::ScalarQuantizer::SQDistanceComputer", %"struct.faiss::(anonymous namespace)::QuantizerFP16" }
%"struct.faiss::(anonymous namespace)::SimilarityIP" = type <{ ptr, ptr, float, [4 x i8] }>
%"struct.faiss::InvertedListScanner" = type { ptr, i64, i8, i8, ptr, i64 }
%"struct.faiss::(anonymous namespace)::IVFSQScannerIP.67" = type { %"struct.faiss::InvertedListScanner", %"struct.faiss::(anonymous namespace)::DCTemplate.25", i8, float }

; Function Attrs: mustprogress nounwind uwtable
define internal noundef i32 @_ZN5faiss12_GLOBAL__N_17intbitsEf(float noundef %0) #1 {
  %2 = alloca float, align 4
  %3 = alloca ptr, align 8
  store float %0, ptr %2, align 4
  store ptr %2, ptr %3, align 8
  %4 = load ptr, ptr %3, align 8
  %5 = load i32, ptr %4, align 4
  ret i32 %5
}

; Function Attrs: mustprogress nounwind uwtable
define internal noundef float @_ZN5faiss12_GLOBAL__N_19floatbitsEj(i32 noundef %0) #1 {
  %2 = alloca i32, align 4
  %3 = alloca ptr, align 8
  store i32 %0, ptr %2, align 4
  store ptr %2, ptr %3, align 8
  %4 = load ptr, ptr %3, align 8
  %5 = load float, ptr %4, align 4
  ret float %5
}

; Function Attrs: mustprogress nounwind uwtable
define linkonce_odr noundef float @_ZN5faiss11decode_fp16Et(i16 noundef zeroext %0) #1 comdat {
  %2 = alloca i16, align 2
  %3 = alloca i32, align 4
  %4 = alloca i32, align 4
  %5 = alloca i32, align 4
  %6 = alloca i32, align 4
  %7 = alloca i32, align 4
  %8 = alloca i32, align 4
  %9 = alloca i32, align 4
  store i16 %0, ptr %2, align 2
  store i32 260046848, ptr %3, align 4
  %10 = load i16, ptr %2, align 2
  %11 = zext i16 %10 to i32
  %12 = and i32 %11, 32767
  %13 = shl i32 %12, 13
  store i32 %13, ptr %4, align 4
  %14 = load i32, ptr %4, align 4
  %15 = and i32 260046848, %14
  store i32 %15, ptr %5, align 4
  %16 = load i32, ptr %4, align 4
  %17 = add nsw i32 %16, 939524096
  store i32 %17, ptr %4, align 4
  %18 = load i32, ptr %4, align 4
  %19 = add nsw i32 %18, 939524096
  store i32 %19, ptr %6, align 4
  %20 = load i32, ptr %4, align 4
  %21 = add i32 %20, 8388608
  %22 = call noundef float @_ZN5faiss12_GLOBAL__N_19floatbitsEj(i32 noundef %21)
  %23 = call noundef float @_ZN5faiss12_GLOBAL__N_19floatbitsEj(i32 noundef 947912704)
  %24 = fsub float %22, %23
  %25 = call noundef i32 @_ZN5faiss12_GLOBAL__N_17intbitsEf(float noundef %24)
  store i32 %25, ptr %7, align 4
  %26 = load i32, ptr %5, align 4
  %27 = icmp eq i32 %26, 0
  br i1 %27, label %28, label %30

28:                                               ; preds = %1
  %29 = load i32, ptr %7, align 4
  br label %32

30:                                               ; preds = %1
  %31 = load i32, ptr %4, align 4
  br label %32

32:                                               ; preds = %30, %28
  %33 = phi i32 [ %29, %28 ], [ %31, %30 ]
  store i32 %33, ptr %8, align 4
  %34 = load i16, ptr %2, align 2
  %35 = zext i16 %34 to i32
  %36 = and i32 %35, 32768
  %37 = shl i32 %36, 16
  store i32 %37, ptr %9, align 4
  %38 = load i32, ptr %5, align 4
  %39 = icmp eq i32 %38, 260046848
  br i1 %39, label %40, label %42

40:                                               ; preds = %32
  %41 = load i32, ptr %6, align 4
  br label %44

42:                                               ; preds = %32
  %43 = load i32, ptr %8, align 4
  br label %44

44:                                               ; preds = %42, %40
  %45 = phi i32 [ %41, %40 ], [ %43, %42 ]
  %46 = load i32, ptr %9, align 4
  %47 = or i32 %45, %46
  %48 = call noundef float @_ZN5faiss12_GLOBAL__N_19floatbitsEj(i32 noundef %47)
  ret float %48
}

; Function Attrs: mustprogress nounwind uwtable
define internal void @_ZN5faiss12_GLOBAL__N_112SimilarityIPILi1EEC2EPKf(ptr noundef nonnull align 8 dereferenceable(20) %0, ptr noundef %1) unnamed_addr #1 align 2 {
  %3 = alloca ptr, align 8
  %4 = alloca ptr, align 8
  store ptr %0, ptr %3, align 8
  store ptr %1, ptr %4, align 8
  %5 = load ptr, ptr %3, align 8
  %6 = getelementptr inbounds %"struct.faiss::(anonymous namespace)::SimilarityIP", ptr %5, i32 0, i32 0
  %7 = load ptr, ptr %4, align 8
  store ptr %7, ptr %6, align 8
  ret void
}

; Function Attrs: mustprogress uwtable
define internal noundef float @_ZNK5faiss12_GLOBAL__N_110DCTemplateINS0_13QuantizerFP16ILi1EEENS0_12SimilarityIPILi1EEELi1EE16compute_distanceEPKfPKh(ptr noundef nonnull align 8 dereferenceable(48) %0, ptr noundef %1, ptr noundef %2) #0 align 2 {
  %4 = alloca ptr, align 8
  %5 = alloca float, align 4
  %6 = alloca ptr, align 8
  %7 = alloca ptr, align 8
  %8 = alloca ptr, align 8
  %9 = alloca ptr, align 8
  %10 = alloca i32, align 4
  %11 = alloca ptr, align 8
  %12 = alloca ptr, align 8
  %13 = alloca ptr, align 8
  %14 = alloca %"struct.faiss::(anonymous namespace)::SimilarityIP", align 8
  %15 = alloca i64, align 8
  %16 = alloca float, align 4
  store ptr %0, ptr %11, align 8
  store ptr %1, ptr %12, align 8
  store ptr %2, ptr %13, align 8
  %17 = load ptr, ptr %11, align 8
  %18 = load ptr, ptr %12, align 8
  call void @_ZN5faiss12_GLOBAL__N_112SimilarityIPILi1EEC2EPKf(ptr noundef nonnull align 8 dereferenceable(20) %14, ptr noundef %18)
  store ptr %14, ptr %7, align 8
  %19 = load ptr, ptr %7, align 8
  %20 = getelementptr inbounds %"struct.faiss::(anonymous namespace)::SimilarityIP", ptr %19, i32 0, i32 2
  store float 0.000000e+00, ptr %20, align 8
  %21 = load ptr, ptr %19, align 8
  %22 = getelementptr inbounds %"struct.faiss::(anonymous namespace)::SimilarityIP", ptr %19, i32 0, i32 1
  store ptr %21, ptr %22, align 8
  store i64 0, ptr %15, align 8
  br label %23

23:                                               ; preds = %50, %3
  %24 = load i64, ptr %15, align 8
  %25 = getelementptr inbounds %"struct.faiss::(anonymous namespace)::DCTemplate.25", ptr %17, i32 0, i32 1
  %26 = getelementptr inbounds %"struct.faiss::(anonymous namespace)::QuantizerFP16", ptr %25, i32 0, i32 1
  %27 = load i64, ptr %26, align 8
  %28 = icmp ult i64 %24, %27
  br i1 %28, label %29, label %53

29:                                               ; preds = %23
  %30 = getelementptr inbounds %"struct.faiss::(anonymous namespace)::DCTemplate.25", ptr %17, i32 0, i32 1
  %31 = load ptr, ptr %13, align 8
  %32 = load i64, ptr %15, align 8
  %33 = trunc i64 %32 to i32
  store ptr %30, ptr %8, align 8
  store ptr %31, ptr %9, align 8
  store i32 %33, ptr %10, align 4
  %34 = load ptr, ptr %9, align 8
  %35 = load i32, ptr %10, align 4
  %36 = sext i32 %35 to i64
  %37 = getelementptr inbounds i16, ptr %34, i64 %36
  %38 = load i16, ptr %37, align 2
  %39 = call noundef float @_ZN5faiss11decode_fp16Et(i16 noundef zeroext %38)
  store float %39, ptr %16, align 4
  %40 = load float, ptr %16, align 4
  store ptr %14, ptr %4, align 8
  store float %40, ptr %5, align 4
  %41 = load ptr, ptr %4, align 8
  %42 = getelementptr inbounds %"struct.faiss::(anonymous namespace)::SimilarityIP", ptr %41, i32 0, i32 1
  %43 = load ptr, ptr %42, align 8
  %44 = getelementptr inbounds float, ptr %43, i32 1
  store ptr %44, ptr %42, align 8
  %45 = load float, ptr %43, align 4
  %46 = load float, ptr %5, align 4
  %47 = getelementptr inbounds %"struct.faiss::(anonymous namespace)::SimilarityIP", ptr %41, i32 0, i32 2
  %48 = load float, ptr %47, align 8
  %49 = call float @llvm.fmuladd.f32(float %45, float %46, float %48)
  store float %49, ptr %47, align 8
  br label %50

50:                                               ; preds = %29
  %51 = load i64, ptr %15, align 8
  %52 = add i64 %51, 1
  store i64 %52, ptr %15, align 8
  br label %23, !llvm.loop !72

53:                                               ; preds = %23
  store ptr %14, ptr %6, align 8
  %54 = load ptr, ptr %6, align 8
  %55 = getelementptr inbounds %"struct.faiss::(anonymous namespace)::SimilarityIP", ptr %54, i32 0, i32 2
  %56 = load float, ptr %55, align 8
  ret float %56
}

; Function Attrs: mustprogress uwtable
define internal noundef float @_ZNK5faiss12_GLOBAL__N_110DCTemplateINS0_13QuantizerFP16ILi1EEENS0_12SimilarityIPILi1EEELi1EE13query_to_codeEPKh(ptr noundef nonnull align 8 dereferenceable(48) %0, ptr noundef %1) unnamed_addr #0 align 2 {
  %3 = alloca ptr, align 8
  %4 = alloca ptr, align 8
  store ptr %0, ptr %3, align 8
  store ptr %1, ptr %4, align 8
  %5 = load ptr, ptr %3, align 8
  %6 = getelementptr inbounds %"struct.faiss::ScalarQuantizer::SQDistanceComputer", ptr %5, i32 0, i32 1
  %7 = load ptr, ptr %6, align 8
  %8 = load ptr, ptr %4, align 8
  %9 = call noundef float @_ZNK5faiss12_GLOBAL__N_110DCTemplateINS0_13QuantizerFP16ILi1EEENS0_12SimilarityIPILi1EEELi1EE16compute_distanceEPKfPKh(ptr noundef nonnull align 8 dereferenceable(48) %5, ptr noundef %7, ptr noundef %8)
  ret float %9
}

; Function Attrs: mustprogress uwtable
define internal noundef float @_ZNK5faiss12_GLOBAL__N_114IVFSQScannerIPINS0_10DCTemplateINS0_13QuantizerFP16ILi1EEENS0_12SimilarityIPILi1EEELi1EEELi0EE16distance_to_codeEPKh(ptr noundef nonnull align 8 dereferenceable(96) %0, ptr noundef %1) unnamed_addr #0 align 2 {
  %3 = alloca ptr, align 8
  %4 = alloca ptr, align 8
  store ptr %0, ptr %3, align 8
  store ptr %1, ptr %4, align 8
  %5 = load ptr, ptr %3, align 8
  %6 = getelementptr inbounds %"struct.faiss::(anonymous namespace)::IVFSQScannerIP.67", ptr %5, i32 0, i32 3
  %7 = load float, ptr %6, align 4
  %8 = getelementptr inbounds %"struct.faiss::(anonymous namespace)::IVFSQScannerIP.67", ptr %5, i32 0, i32 1
  %9 = load ptr, ptr %4, align 8
  %10 = call noundef float @_ZNK5faiss12_GLOBAL__N_110DCTemplateINS0_13QuantizerFP16ILi1EEENS0_12SimilarityIPILi1EEELi1EE13query_to_codeEPKh(ptr noundef nonnull align 8 dereferenceable(48) %8, ptr noundef %9)
  %11 = fadd float %7, %10
  ret float %11
}