; Function Attrs: mustprogress nofree norecurse nosync nounwind willreturn memory(read, inaccessiblemem: none) uwtable
define internal noundef float @_ZNK5faiss12_GLOBAL__N_114IVFSQScannerIPINS0_10DCTemplateINS0_13QuantizerFP16ILi1EEENS0_12SimilarityIPILi1EEELi1EEELi0EE16distance_to_codeEPKh(ptr nocapture noundef nonnull readonly align 8 dereferenceable(96) %0, ptr nocapture noundef readonly %1) unnamed_addr #20 align 2 {
  %3 = getelementptr inbounds i8, ptr %0, i64 92
  %4 = load float, ptr %3, align 4
  %5 = getelementptr inbounds i8, ptr %0, i64 80
  %.val.i = load i64, ptr %5, align 8
  %.not.i.i = icmp eq i64 %.val.i, 0
  br i1 %.not.i.i, label %_ZNK5faiss12_GLOBAL__N_110DCTemplateINS0_13QuantizerFP16ILi1EEENS0_12SimilarityIPILi1EEELi1EE13query_to_codeEPKh.exit, label %.lr.ph.i.preheader.i

.lr.ph.i.preheader.i:                             ; preds = %2
  %6 = getelementptr inbounds i8, ptr %0, i64 64
  %7 = load ptr, ptr %6, align 8
  br label %.lr.ph.i.i

.lr.ph.i.i:                                       ; preds = %.lr.ph.i.i, %.lr.ph.i.preheader.i
  %.04.i.i = phi i64 [ %31, %.lr.ph.i.i ], [ 0, %.lr.ph.i.preheader.i ]
  %.sroa.5.03.i.i = phi float [ %30, %.lr.ph.i.i ], [ 0.000000e+00, %.lr.ph.i.preheader.i ]
  %.sroa.2.02.i.i = phi ptr [ %28, %.lr.ph.i.i ], [ %7, %.lr.ph.i.preheader.i ]
  %sext.i.i = shl i64 %.04.i.i, 32
  %8 = ashr exact i64 %sext.i.i, 32
  %9 = getelementptr inbounds i16, ptr %1, i64 %8
  %10 = load i16, ptr %9, align 2
  %11 = zext i16 %10 to i32
  %12 = shl nuw nsw i32 %11, 13
  %13 = and i32 %12, 268427264
  %14 = and i32 %12, 260046848
  %15 = add nuw nsw i32 %13, 939524096
  %16 = or i32 %12, 1879048192
  %17 = add nuw nsw i32 %13, 947912704
  %18 = bitcast i32 %17 to float
  %19 = fadd float %18, 0xBF10000000000000
  %20 = bitcast float %19 to i32
  %21 = icmp eq i32 %14, 0
  %22 = select i1 %21, i32 %20, i32 %15
  %.signext.i.i.i = sext i16 %10 to i32
  %23 = and i32 %.signext.i.i.i, -2147483648
  %24 = icmp eq i32 %14, 260046848
  %25 = select i1 %24, i32 %16, i32 %22
  %26 = or i32 %25, %23
  %27 = bitcast i32 %26 to float
  %28 = getelementptr inbounds i8, ptr %.sroa.2.02.i.i, i64 4
  %29 = load float, ptr %.sroa.2.02.i.i, align 4
  %30 = tail call float @llvm.fmuladd.f32(float %29, float %27, float %.sroa.5.03.i.i)
  %31 = add nuw i64 %.04.i.i, 1
  %exitcond.not.i.i = icmp eq i64 %31, %.val.i
  br i1 %exitcond.not.i.i, label %_ZNK5faiss12_GLOBAL__N_110DCTemplateINS0_13QuantizerFP16ILi1EEENS0_12SimilarityIPILi1EEELi1EE13query_to_codeEPKh.exit, label %.lr.ph.i.i, !llvm.loop !71

_ZNK5faiss12_GLOBAL__N_110DCTemplateINS0_13QuantizerFP16ILi1EEENS0_12SimilarityIPILi1EEELi1EE13query_to_codeEPKh.exit: ; preds = %.lr.ph.i.i, %2
  %.sroa.5.0.lcssa.i.i = phi float [ 0.000000e+00, %2 ], [ %30, %.lr.ph.i.i ]
  %32 = fadd float %4, %.sroa.5.0.lcssa.i.i
  ret float %32
}